target datalayout = "e-m:e-p270:32:32-p271:32:32-p272:64:64-i64:64-i128:128-f80:128-n8:16:32:64-S128"
target triple = "x86_64-pc-linux-gnu"

%struct.stat = type { i64, i64, i64, i32, i32, i32, i32, i64, i64, i64, i64, %struct.timespec, %struct.timespec, %struct.timespec, [3 x i64] }
%struct.timespec = type { i64, i64 }

@.str.4 = private unnamed_addr constant [11 x i8] c"/etc/group\00", align 1
@.str.5 = private unnamed_addr constant [22 x i8] c"Can't stat file %s %m\00", align 1

; Function Attrs: nounwind uwtable
define dso_local i64 @get_group_tlm() #0 {
  %1 = alloca i64, align 8
  %2 = alloca %struct.stat, align 8
  %3 = alloca i32, align 4
  call void @llvm.lifetime.start.p0(i64 144, ptr %2) #7
  %4 = call i32 @stat(ptr noundef @.str.4, ptr noundef %2) #7
  %5 = icmp ne i32 %4, 0
  br i1 %5, label %6, label %8

6:                                                ; preds = %0
  %7 = call i32 (ptr, ...) @error(ptr noundef @.str.5, ptr noundef @.str.4)
  store i64 0, ptr %1, align 8
  store i32 1, ptr %3, align 4
  br label %12

8:                                                ; preds = %0
  %9 = getelementptr inbounds nuw %struct.stat, ptr %2, i32 0, i32 12
  %10 = getelementptr inbounds nuw %struct.timespec, ptr %9, i32 0, i32 0
  %11 = load i64, ptr %10, align 8
  store i64 %11, ptr %1, align 8
  store i32 1, ptr %3, align 4
  br label %12

12:                                               ; preds = %8, %6
  call void @llvm.lifetime.end.p0(i64 144, ptr %2) #7
  %13 = load i64, ptr %1, align 8
  ret i64 %13
}