; Function Attrs: nounwind uwtable
define dso_local i64 @get_group_tlm() local_unnamed_addr #0 {
  %1 = alloca %struct.stat, align 8
  call void @llvm.lifetime.start.p0(i64 144, ptr nonnull %1) #12
  %2 = call i32 @stat(ptr noundef nonnull @.str.4, ptr noundef nonnull %1) #12
  %.not = icmp eq i32 %2, 0
  br i1 %.not, label %5, label %3

3:                                                ; preds = %0
  %4 = tail call i32 (ptr, ...) @error(ptr noundef nonnull @.str.5, ptr noundef nonnull @.str.4) #12
  br label %8

5:                                                ; preds = %0
  %6 = getelementptr inbounds nuw i8, ptr %1, i64 88
  %7 = load i64, ptr %6, align 8
  br label %8

8:                                                ; preds = %5, %3
  %.0 = phi i64 [ 0, %3 ], [ %7, %5 ]
  call void @llvm.lifetime.end.p0(i64 144, ptr nonnull %1) #12
  ret i64 %.0
}